; Function Attrs: mustprogress uwtable
define hidden void @_ZN9spacer_qe20reduce_array_selectsER5modelR7obj_refI4expr11ast_managerE(ptr noundef nonnull align 8 dereferenceable(160) %mdl, ptr noundef nonnull align 8 dereferenceable(16) %fml) local_unnamed_addr #3 personality ptr @__gxx_personality_v0 {
entry:
  %ap.i = alloca %"class.spacer_qe::array_select_reducer", align 8
  %_tmp = alloca %class.ref_vector.32, align 8
  %m_manager.i = getelementptr inbounds i8, ptr %fml, i64 8
  %0 = load ptr, ptr %m_manager.i, align 8
  %1 = ptrtoint ptr %0 to i64
  store i64 %1, ptr %_tmp, align 8
  %m_nodes.i.i = getelementptr inbounds i8, ptr %_tmp, i64 8
  store ptr null, ptr %m_nodes.i.i, align 8
  call void @llvm.lifetime.start.p0(i64 248, ptr nonnull %ap.i)
  invoke void @_ZN9spacer_qe20array_select_reducerC2ER11ast_manager(ptr noundef nonnull align 8 dereferenceable(241) %ap.i, ptr noundef nonnull align 8 dereferenceable(976) %0)
          to label %.noexc unwind label %lpad

.noexc:                                           ; preds = %entry
  invoke void @_ZN9spacer_qe20array_select_reducerclER5modelRK10ref_vectorI3app11ast_managerER7obj_refI4exprS5_Eb(ptr noundef nonnull align 8 dereferenceable(241) %ap.i, ptr noundef nonnull align 8 dereferenceable(160) %mdl, ptr noundef nonnull align 8 dereferenceable(16) %_tmp, ptr noundef nonnull align 8 dereferenceable(16) %fml, i1 noundef zeroext true)
          to label %invoke.cont unwind label %lpad.i

lpad.i:                                           ; preds = %.noexc
  %2 = landingpad { ptr, i32 }
          cleanup
  call void @_ZN9spacer_qe20array_select_reducerD2Ev(ptr noundef nonnull align 8 dereferenceable(241) %ap.i) #18
  br label %lpad.body

invoke.cont:                                      ; preds = %.noexc
  call void @_ZN9spacer_qe20array_select_reducerD2Ev(ptr noundef nonnull align 8 dereferenceable(241) %ap.i) #18
  call void @llvm.lifetime.end.p0(i64 248, ptr nonnull %ap.i)
  %3 = load ptr, ptr %m_nodes.i.i, align 8
  %cmp.i.i.i = icmp eq ptr %3, null
  br i1 %cmp.i.i.i, label %_ZN10ref_vectorI3app11ast_managerED2Ev.exit, label %_ZNK6vectorIP3appLb0EjE4sizeEv.exit.i.i

_ZNK6vectorIP3appLb0EjE4sizeEv.exit.i.i:          ; preds = %invoke.cont
  %arrayidx.i.i.i = getelementptr inbounds i8, ptr %3, i64 -4
  %4 = load i32, ptr %arrayidx.i.i.i, align 4
  %5 = zext i32 %4 to i64
  %add.ptr.i.i = getelementptr inbounds ptr, ptr %3, i64 %5
  %cmp3.i.not.i.i = icmp eq i32 %4, 0
  br i1 %cmp3.i.not.i.i, label %if.then.i.i.i.i.i, label %for.body.i.i.i

for.body.i.i.i:                                   ; preds = %_ZNK6vectorIP3appLb0EjE4sizeEv.exit.i.i, %_ZN15ref_vector_coreI3app19ref_manager_wrapperIS0_11ast_managerEE7dec_refEPS0_.exit.i.i.i
  %it.04.i.i.i = phi ptr [ %incdec.ptr.i.i.i, %_ZN15ref_vector_coreI3app19ref_manager_wrapperIS0_11ast_managerEE7dec_refEPS0_.exit.i.i.i ], [ %3, %_ZNK6vectorIP3appLb0EjE4sizeEv.exit.i.i ]
  %6 = load ptr, ptr %it.04.i.i.i, align 8
  %7 = load ptr, ptr %_tmp, align 8
  %tobool.not.i.i.i.i.i.i = icmp eq ptr %6, null
  br i1 %tobool.not.i.i.i.i.i.i, label %_ZN15ref_vector_coreI3app19ref_manager_wrapperIS0_11ast_managerEE7dec_refEPS0_.exit.i.i.i, label %if.then.i.i.i.i.i.i

if.then.i.i.i.i.i.i:                              ; preds = %for.body.i.i.i
  %m_ref_count.i.i.i.i.i.i.i = getelementptr inbounds i8, ptr %6, i64 8
  %8 = load i32, ptr %m_ref_count.i.i.i.i.i.i.i, align 4
  %dec.i.i.i.i.i.i.i = add i32 %8, -1
  store i32 %dec.i.i.i.i.i.i.i, ptr %m_ref_count.i.i.i.i.i.i.i, align 4
  %cmp.i.i.i.i.i.i = icmp eq i32 %dec.i.i.i.i.i.i.i, 0
  br i1 %cmp.i.i.i.i.i.i, label %if.then2.i.i.i.i.i.i, label %_ZN15ref_vector_coreI3app19ref_manager_wrapperIS0_11ast_managerEE7dec_refEPS0_.exit.i.i.i

if.then2.i.i.i.i.i.i:                             ; preds = %if.then.i.i.i.i.i.i
  invoke void @_ZN11ast_manager11delete_nodeEP3ast(ptr noundef nonnull align 8 dereferenceable(976) %7, ptr noundef nonnull %6)
          to label %_ZN15ref_vector_coreI3app19ref_manager_wrapperIS0_11ast_managerEE7dec_refEPS0_.exit.i.i.i unwind label %terminate.lpad.i.i

_ZN15ref_vector_coreI3app19ref_manager_wrapperIS0_11ast_managerEE7dec_refEPS0_.exit.i.i.i: ; preds = %if.then2.i.i.i.i.i.i, %if.then.i.i.i.i.i.i, %for.body.i.i.i
  %incdec.ptr.i.i.i = getelementptr inbounds i8, ptr %it.04.i.i.i, i64 8
  %cmp.i1.i.i = icmp ult ptr %incdec.ptr.i.i.i, %add.ptr.i.i
  br i1 %cmp.i1.i.i, label %for.body.i.i.i, label %invoke.cont.i.i, !llvm.loop !13

invoke.cont.i.i:                                  ; preds = %_ZN15ref_vector_coreI3app19ref_manager_wrapperIS0_11ast_managerEE7dec_refEPS0_.exit.i.i.i
  %.pre.i.i = load ptr, ptr %m_nodes.i.i, align 8
  %tobool.not.i.i.i.i.i = icmp eq ptr %.pre.i.i, null
  br i1 %tobool.not.i.i.i.i.i, label %_ZN10ref_vectorI3app11ast_managerED2Ev.exit, label %if.then.i.i.i.i.i

if.then.i.i.i.i.i:                                ; preds = %invoke.cont.i.i, %_ZNK6vectorIP3appLb0EjE4sizeEv.exit.i.i
  %9 = phi ptr [ %.pre.i.i, %invoke.cont.i.i ], [ %3, %_ZNK6vectorIP3appLb0EjE4sizeEv.exit.i.i ]
  %add.ptr.i.i.i.i.i.i = getelementptr inbounds i8, ptr %9, i64 -8
  invoke void @_ZN6memory10deallocateEPv(ptr noundef nonnull %add.ptr.i.i.i.i.i.i)
          to label %_ZN10ref_vectorI3app11ast_managerED2Ev.exit unwind label %terminate.lpad.i.i.i.i

terminate.lpad.i.i.i.i:                           ; preds = %if.then.i.i.i.i.i
  %10 = landingpad { ptr, i32 }
          catch ptr null
  %11 = extractvalue { ptr, i32 } %10, 0
  call void @__clang_call_terminate(ptr %11) #19
  unreachable

terminate.lpad.i.i:                               ; preds = %if.then2.i.i.i.i.i.i
  %12 = landingpad { ptr, i32 }
          catch ptr null
  %13 = extractvalue { ptr, i32 } %12, 0
  call void @__clang_call_terminate(ptr %13) #19
  unreachable

_ZN10ref_vectorI3app11ast_managerED2Ev.exit:      ; preds = %invoke.cont, %invoke.cont.i.i, %if.then.i.i.i.i.i
  ret void

lpad:                                             ; preds = %entry
  %14 = landingpad { ptr, i32 }
          cleanup
  br label %lpad.body

lpad.body:                                        ; preds = %lpad.i, %lpad
  %eh.lpad-body = phi { ptr, i32 } [ %14, %lpad ], [ %2, %lpad.i ]
  call void @_ZN10ref_vectorI3app11ast_managerED2Ev(ptr noundef nonnull align 8 dereferenceable(16) %_tmp) #18
  resume { ptr, i32 } %eh.lpad-body
}